target datalayout = "e-m:e-p270:32:32-p271:32:32-p272:64:64-i64:64-i128:128-f80:128-n8:16:32:64-S128"
target triple = "x86_64-unknown-linux-gnu"

%"class.std::__cxx11::basic_string" = type { %"struct.std::__cxx11::basic_string<char>::_Alloc_hider", i64, %union.anon }
%"struct.std::__cxx11::basic_string<char>::_Alloc_hider" = type { ptr }
%union.anon = type { i64, [8 x i8] }
%"class.rocksdb::PosixRandomAccessFile" = type { %"class.rocksdb::FSRandomAccessFile", %"class.std::__cxx11::basic_string", i32, i8, i64, ptr }
%"class.rocksdb::FSRandomAccessFile" = type { ptr }

; Function Attrs: mustprogress nounwind uwtable
define noundef i32 @_ZN7rocksdb7FadviseEilmi(i32 noundef %fd, i64 noundef %offset, i64 noundef %len, i32 noundef %advice) #3 {
entry:
  %fd.addr = alloca i32, align 4
  %offset.addr = alloca i64, align 8
  %len.addr = alloca i64, align 8
  %advice.addr = alloca i32, align 4
  store i32 %fd, ptr %fd.addr, align 4
  store i64 %offset, ptr %offset.addr, align 8
  store i64 %len, ptr %len.addr, align 8
  store i32 %advice, ptr %advice.addr, align 4
  %0 = load i32, ptr %fd.addr, align 4
  %1 = load i64, ptr %offset.addr, align 8
  %2 = load i64, ptr %len.addr, align 8
  %3 = load i32, ptr %advice.addr, align 4
  %call = call i32 @posix_fadvise(i32 noundef %0, i64 noundef %1, i64 noundef %2, i32 noundef %3) #15
  ret i32 %call
}

; Function Attrs: mustprogress uwtable
define void @_ZN7rocksdb21PosixRandomAccessFile4HintENS_18FSRandomAccessFile13AccessPatternE(ptr noundef nonnull align 8 dereferenceable(64) %this, i32 noundef %pattern) unnamed_addr #0 align 2 {
entry:
  %this.addr = alloca ptr, align 8
  %pattern.addr = alloca i32, align 4
  store ptr %this, ptr %this.addr, align 8
  store i32 %pattern, ptr %pattern.addr, align 4
  %this1 = load ptr, ptr %this.addr, align 8
  %vtable = load ptr, ptr %this1, align 8
  %vfn = getelementptr inbounds ptr, ptr %vtable, i64 7
  %0 = load ptr, ptr %vfn, align 8
  %call = call noundef zeroext i1 %0(ptr noundef nonnull align 8 dereferenceable(64) %this1)
  br i1 %call, label %if.then, label %if.end

if.then:                                          ; preds = %entry
  br label %sw.epilog

if.end:                                           ; preds = %entry
  %1 = load i32, ptr %pattern.addr, align 4
  switch i32 %1, label %sw.default [
    i32 0, label %sw.bb
    i32 1, label %sw.bb3
    i32 2, label %sw.bb6
    i32 3, label %sw.bb9
    i32 4, label %sw.bb12
  ]

sw.bb:                                            ; preds = %if.end
  %fd_ = getelementptr inbounds %"class.rocksdb::PosixRandomAccessFile", ptr %this1, i32 0, i32 2
  %2 = load i32, ptr %fd_, align 8
  %call2 = call noundef i32 @_ZN7rocksdb7FadviseEilmi(i32 noundef %2, i64 noundef 0, i64 noundef 0, i32 noundef 0)
  br label %sw.epilog

sw.bb3:                                           ; preds = %if.end
  %fd_4 = getelementptr inbounds %"class.rocksdb::PosixRandomAccessFile", ptr %this1, i32 0, i32 2
  %3 = load i32, ptr %fd_4, align 8
  %call5 = call noundef i32 @_ZN7rocksdb7FadviseEilmi(i32 noundef %3, i64 noundef 0, i64 noundef 0, i32 noundef 1)
  br label %sw.epilog

sw.bb6:                                           ; preds = %if.end
  %fd_7 = getelementptr inbounds %"class.rocksdb::PosixRandomAccessFile", ptr %this1, i32 0, i32 2
  %4 = load i32, ptr %fd_7, align 8
  %call8 = call noundef i32 @_ZN7rocksdb7FadviseEilmi(i32 noundef %4, i64 noundef 0, i64 noundef 0, i32 noundef 2)
  br label %sw.epilog

sw.bb9:                                           ; preds = %if.end
  %fd_10 = getelementptr inbounds %"class.rocksdb::PosixRandomAccessFile", ptr %this1, i32 0, i32 2
  %5 = load i32, ptr %fd_10, align 8
  %call11 = call noundef i32 @_ZN7rocksdb7FadviseEilmi(i32 noundef %5, i64 noundef 0, i64 noundef 0, i32 noundef 3)
  br label %sw.epilog

sw.bb12:                                          ; preds = %if.end
  %fd_13 = getelementptr inbounds %"class.rocksdb::PosixRandomAccessFile", ptr %this1, i32 0, i32 2
  %6 = load i32, ptr %fd_13, align 8
  %call14 = call noundef i32 @_ZN7rocksdb7FadviseEilmi(i32 noundef %6, i64 noundef 0, i64 noundef 0, i32 noundef 4)
  br label %sw.epilog

sw.default:                                       ; preds = %if.end
  br label %sw.epilog

sw.epilog:                                        ; preds = %sw.default, %sw.bb12, %sw.bb9, %sw.bb6, %sw.bb3, %sw.bb, %if.then
  ret void
}