; Function Attrs: mustprogress uwtable
define void @_ZN7rocksdb21PosixRandomAccessFile4HintENS_18FSRandomAccessFile13AccessPatternE(ptr noundef nonnull align 8 dereferenceable(64) %this, i32 noundef %pattern) unnamed_addr #0 align 2 {
entry:
  %vtable = load ptr, ptr %this, align 8
  %vfn = getelementptr inbounds i8, ptr %vtable, i64 56
  %0 = load ptr, ptr %vfn, align 8
  %call = tail call noundef zeroext i1 %0(ptr noundef nonnull align 8 dereferenceable(64) %this)
  %switch = icmp ugt i32 %pattern, 4
  %or.cond.not = or i1 %switch, %call
  br i1 %or.cond.not, label %sw.epilog, label %sw.epilog.sink.split

sw.epilog.sink.split:                             ; preds = %entry
  %fd_13 = getelementptr inbounds i8, ptr %this, i64 40
  %1 = load i32, ptr %fd_13, align 8
  %call.i4 = tail call noundef i32 @posix_fadvise(i32 noundef %1, i64 noundef 0, i64 noundef 0, i32 noundef %pattern) #25
  br label %sw.epilog

sw.epilog:                                        ; preds = %sw.epilog.sink.split, %entry
  ret void
}